; Function Attrs: nounwind uwtable
define noundef ptr @SparseMatrix_from_coordinate_format_not_compacted(ptr noundef readonly captures(none) %0) local_unnamed_addr #0 {
  %2 = getelementptr inbounds nuw i8, ptr %0, i64 48
  %3 = load i32, ptr %2, align 8, !tbaa !18
  %.not = icmp eq i32 %3, 1
  br i1 %.not, label %4, label %21

4:                                                ; preds = %1
  %5 = getelementptr inbounds nuw i8, ptr %0, i64 40
  %6 = load ptr, ptr %5, align 8, !tbaa !13
  %7 = getelementptr inbounds nuw i8, ptr %0, i64 24
  %8 = load ptr, ptr %7, align 8, !tbaa !3
  %9 = getelementptr inbounds nuw i8, ptr %0, i64 32
  %10 = load ptr, ptr %9, align 8, !tbaa !12
  %11 = getelementptr inbounds nuw i8, ptr %0, i64 8
  %12 = load i32, ptr %11, align 8, !tbaa !14
  %13 = load i32, ptr %0, align 8, !tbaa !15
  %14 = getelementptr inbounds nuw i8, ptr %0, i64 4
  %15 = load i32, ptr %14, align 4, !tbaa !16
  %16 = getelementptr inbounds nuw i8, ptr %0, i64 16
  %17 = load i32, ptr %16, align 8, !tbaa !17
  %18 = getelementptr inbounds nuw i8, ptr %0, i64 56
  %19 = load i64, ptr %18, align 8, !tbaa !62
  %20 = tail call fastcc noundef ptr @SparseMatrix_from_coordinate_arrays_internal(i32 noundef %12, i32 noundef %13, i32 noundef %15, ptr noundef readonly %8, ptr noundef readonly %10, ptr noundef readonly %6, i32 noundef %17, i64 noundef %19, i32 noundef 0)
  br label %21

21:                                               ; preds = %1, %4
  %.0 = phi ptr [ %20, %4 ], [ null, %1 ]
  ret ptr %.0
}